target datalayout = "e-m:e-p270:32:32-p271:32:32-p272:64:64-i64:64-i128:128-f80:128-n8:16:32:64-S128"
target triple = "x86_64-pc-linux-gnu"

%"class.llvm::SmallVectorBase" = type { ptr, i32, i32 }
%"class.std::__cxx11::basic_string" = type { %"struct.std::__cxx11::basic_string<char>::_Alloc_hider", i64, %union.anon }
%"struct.std::__cxx11::basic_string<char>::_Alloc_hider" = type { ptr }
%union.anon = type { i64, [8 x i8] }
%"class.llvm::Triple" = type { %"class.std::__cxx11::basic_string", i32, i32, i32, i32, i32, i32 }
%"class.llvm::StringRef" = type { ptr, i64 }
%"class.llvm::SmallVector.261" = type { %"class.llvm::SmallVectorImpl.262", %"struct.llvm::SmallVectorStorage.265" }
%"class.llvm::SmallVectorImpl.262" = type { %"class.llvm::SmallVectorTemplateBase.263" }
%"class.llvm::SmallVectorTemplateBase.263" = type { %"class.llvm::SmallVectorTemplateCommon.264" }
%"class.llvm::SmallVectorTemplateCommon.264" = type { %"class.llvm::SmallVectorBase" }
%"struct.llvm::SmallVectorStorage.265" = type { [48 x i8] }

@.str.110 = private unnamed_addr constant [5 x i8] c"i386\00", align 1
@.str.111 = private unnamed_addr constant [5 x i8] c"i586\00", align 1
@.str.112 = private unnamed_addr constant [5 x i8] c"i686\00", align 1
@.str.113 = private unnamed_addr constant [6 x i8] c"armv7\00", align 1

; Function Attrs: mustprogress nounwind uwtable
define linkonce_odr hidden noundef ptr @_ZNK4llvm25SmallVectorTemplateCommonINS_9StringRefEvE10getFirstElEv(ptr noundef nonnull align 8 dereferenceable(16) %0) #0 comdat align 2 {
  %2 = alloca ptr, align 8
  store ptr %0, ptr %2, align 8
  %3 = load ptr, ptr %2, align 8
  %4 = getelementptr inbounds i8, ptr %3, i64 16
  ret ptr %4
}

; Function Attrs: mustprogress nounwind uwtable
define linkonce_odr hidden void @_ZN4llvm25SmallVectorTemplateCommonINS_9StringRefEvEC2Em(ptr noundef nonnull align 8 dereferenceable(16) %0, i64 noundef %1) unnamed_addr #0 comdat align 2 {
  %3 = alloca ptr, align 8
  %4 = alloca i64, align 8
  store ptr %0, ptr %3, align 8
  store i64 %1, ptr %4, align 8
  %5 = load ptr, ptr %3, align 8
  %6 = call noundef ptr @_ZNK4llvm25SmallVectorTemplateCommonINS_9StringRefEvE10getFirstElEv(ptr noundef nonnull align 8 dereferenceable(16) %5)
  %7 = load i64, ptr %4, align 8
  call void @_ZN4llvm15SmallVectorBaseIjEC2EPvm(ptr noundef nonnull align 8 dereferenceable(16) %5, ptr noundef %6, i64 noundef %7)
  ret void
}

; Function Attrs: mustprogress nounwind uwtable
define linkonce_odr hidden noundef zeroext i1 @_ZNK4llvm25SmallVectorTemplateCommonINS_9StringRefEvE7isSmallEv(ptr noundef nonnull align 8 dereferenceable(16) %0) #0 comdat align 2 {
  %2 = alloca ptr, align 8
  store ptr %0, ptr %2, align 8
  %3 = load ptr, ptr %2, align 8
  %4 = getelementptr inbounds nuw %"class.llvm::SmallVectorBase", ptr %3, i32 0, i32 0
  %5 = load ptr, ptr %4, align 8
  %6 = call noundef ptr @_ZNK4llvm25SmallVectorTemplateCommonINS_9StringRefEvE10getFirstElEv(ptr noundef nonnull align 8 dereferenceable(16) %3)
  %7 = icmp eq ptr %5, %6
  ret i1 %7
}

; Function Attrs: mustprogress nounwind uwtable
define linkonce_odr hidden void @_ZN4llvm23SmallVectorTemplateBaseINS_9StringRefELb1EEC2Em(ptr noundef nonnull align 8 dereferenceable(16) %0, i64 noundef %1) unnamed_addr #0 comdat align 2 {
  %3 = alloca ptr, align 8
  %4 = alloca i64, align 8
  store ptr %0, ptr %3, align 8
  store i64 %1, ptr %4, align 8
  %5 = load ptr, ptr %3, align 8
  %6 = load i64, ptr %4, align 8
  call void @_ZN4llvm25SmallVectorTemplateCommonINS_9StringRefEvEC2Em(ptr noundef nonnull align 8 dereferenceable(16) %5, i64 noundef %6)
  ret void
}

; Function Attrs: mustprogress nounwind uwtable
define linkonce_odr hidden void @_ZN4llvm15SmallVectorImplINS_9StringRefEED2Ev(ptr noundef nonnull align 8 dereferenceable(16) %0) unnamed_addr #0 comdat align 2 {
  %2 = alloca ptr, align 8
  store ptr %0, ptr %2, align 8
  %3 = load ptr, ptr %2, align 8
  %4 = call noundef zeroext i1 @_ZNK4llvm25SmallVectorTemplateCommonINS_9StringRefEvE7isSmallEv(ptr noundef nonnull align 8 dereferenceable(16) %3)
  br i1 %4, label %7, label %5

5:                                                ; preds = %1
  %6 = call noundef ptr @_ZN4llvm25SmallVectorTemplateCommonINS_9StringRefEvE5beginEv(ptr noundef nonnull align 8 dereferenceable(16) %3)
  call void @free(ptr noundef %6) #11
  br label %7

7:                                                ; preds = %5, %1
  ret void
}

; Function Attrs: mustprogress nounwind uwtable
define linkonce_odr hidden void @_ZN4llvm23SmallVectorTemplateBaseINS_9StringRefELb1EE13destroy_rangeEPS1_S3_(ptr noundef %0, ptr noundef %1) #0 comdat align 2 {
  %3 = alloca ptr, align 8
  %4 = alloca ptr, align 8
  store ptr %0, ptr %3, align 8
  store ptr %1, ptr %4, align 8
  ret void
}

; Function Attrs: mustprogress nounwind uwtable
define linkonce_odr hidden void @_ZN4llvm15SmallVectorImplINS_9StringRefEEC2Ej(ptr noundef nonnull align 8 dereferenceable(16) %0, i32 noundef %1) unnamed_addr #0 comdat align 2 {
  %3 = alloca ptr, align 8
  %4 = alloca i32, align 4
  store ptr %0, ptr %3, align 8
  store i32 %1, ptr %4, align 4
  %5 = load ptr, ptr %3, align 8
  %6 = load i32, ptr %4, align 4
  %7 = zext i32 %6 to i64
  call void @_ZN4llvm23SmallVectorTemplateBaseINS_9StringRefELb1EEC2Em(ptr noundef nonnull align 8 dereferenceable(16) %5, i64 noundef %7)
  ret void
}

; Function Attrs: mustprogress nounwind uwtable
define linkonce_odr hidden void @_ZN4llvm11SmallVectorINS_9StringRefELj3EED2Ev(ptr noundef nonnull align 8 dereferenceable(64) %0) unnamed_addr #0 comdat align 2 {
  %2 = alloca ptr, align 8
  store ptr %0, ptr %2, align 8
  %3 = load ptr, ptr %2, align 8
  %4 = call noundef ptr @_ZN4llvm25SmallVectorTemplateCommonINS_9StringRefEvE5beginEv(ptr noundef nonnull align 8 dereferenceable(16) %3)
  %5 = call noundef ptr @_ZN4llvm25SmallVectorTemplateCommonINS_9StringRefEvE3endEv(ptr noundef nonnull align 8 dereferenceable(16) %3)
  call void @_ZN4llvm23SmallVectorTemplateBaseINS_9StringRefELb1EE13destroy_rangeEPS1_S3_(ptr noundef %4, ptr noundef %5)
  call void @_ZN4llvm15SmallVectorImplINS_9StringRefEED2Ev(ptr noundef nonnull align 8 dereferenceable(16) %3) #11
  ret void
}

; Function Attrs: mustprogress nounwind uwtable
define linkonce_odr hidden noundef ptr @_ZN4llvm25SmallVectorTemplateCommonINS_9StringRefEvE3endEv(ptr noundef nonnull align 8 dereferenceable(16) %0) #0 comdat align 2 {
  %2 = alloca ptr, align 8
  store ptr %0, ptr %2, align 8
  %3 = load ptr, ptr %2, align 8
  %4 = call noundef ptr @_ZN4llvm25SmallVectorTemplateCommonINS_9StringRefEvE5beginEv(ptr noundef nonnull align 8 dereferenceable(16) %3)
  %5 = call noundef i64 @_ZNK4llvm15SmallVectorBaseIjE4sizeEv(ptr noundef nonnull align 8 dereferenceable(16) %3)
  %6 = getelementptr inbounds %"class.llvm::StringRef", ptr %4, i64 %5
  ret ptr %6
}

; Function Attrs: mustprogress nounwind uwtable
define linkonce_odr hidden noundef ptr @_ZN4llvm25SmallVectorTemplateCommonINS_9StringRefEvE5beginEv(ptr noundef nonnull align 8 dereferenceable(16) %0) #0 comdat align 2 {
  %2 = alloca ptr, align 8
  store ptr %0, ptr %2, align 8
  %3 = load ptr, ptr %2, align 8
  %4 = getelementptr inbounds nuw %"class.llvm::SmallVectorBase", ptr %3, i32 0, i32 0
  %5 = load ptr, ptr %4, align 8
  ret ptr %5
}

; Function Attrs: mustprogress nounwind uwtable
define linkonce_odr hidden void @_ZN4llvm11SmallVectorINS_9StringRefELj3EEC2Ev(ptr noundef nonnull align 8 dereferenceable(64) %0) unnamed_addr #0 comdat align 2 {
  %2 = alloca ptr, align 8
  store ptr %0, ptr %2, align 8
  %3 = load ptr, ptr %2, align 8
  call void @_ZN4llvm15SmallVectorImplINS_9StringRefEEC2Ej(ptr noundef nonnull align 8 dereferenceable(16) %3, i32 noundef 3)
  ret void
}

; Function Attrs: mustprogress nounwind uwtable
define linkonce_odr hidden void @_ZN4llvm6TripleC2ERKS0_(ptr noundef nonnull align 8 dereferenceable(56) %0, ptr noundef nonnull align 8 dereferenceable(56) %1) unnamed_addr #0 comdat align 2 {
  %3 = alloca ptr, align 8
  %4 = alloca ptr, align 8
  store ptr %0, ptr %3, align 8
  store ptr %1, ptr %4, align 8
  %5 = load ptr, ptr %3, align 8
  %6 = getelementptr inbounds nuw %"class.llvm::Triple", ptr %5, i32 0, i32 0
  %7 = load ptr, ptr %4, align 8
  %8 = getelementptr inbounds nuw %"class.llvm::Triple", ptr %7, i32 0, i32 0
  call void @_ZNSt7__cxx1112basic_stringIcSt11char_traitsIcESaIcEEC1ERKS4_(ptr noundef nonnull align 8 dereferenceable(32) %6, ptr noundef nonnull align 8 dereferenceable(32) %8)
  %9 = getelementptr inbounds nuw %"class.llvm::Triple", ptr %5, i32 0, i32 1
  %10 = load ptr, ptr %4, align 8
  %11 = getelementptr inbounds nuw %"class.llvm::Triple", ptr %10, i32 0, i32 1
  call void @llvm.memcpy.p0.p0.i64(ptr align 8 %9, ptr align 8 %11, i64 24, i1 false)
  ret void
}

; Function Attrs: mustprogress nounwind uwtable
define linkonce_odr hidden void @_ZN4llvm6TripleD2Ev(ptr noundef nonnull align 8 dereferenceable(56) %0) unnamed_addr #0 comdat align 2 {
  %2 = alloca ptr, align 8
  store ptr %0, ptr %2, align 8
  %3 = load ptr, ptr %2, align 8
  %4 = getelementptr inbounds nuw %"class.llvm::Triple", ptr %3, i32 0, i32 0
  call void @_ZNSt7__cxx1112basic_stringIcSt11char_traitsIcESaIcEED1Ev(ptr noundef nonnull align 8 dereferenceable(32) %4) #11
  ret void
}

; Function Attrs: mustprogress nounwind uwtable
define linkonce_odr hidden noundef nonnull align 8 dereferenceable(56) ptr @_ZN4llvm6TripleaSEOS0_(ptr noundef nonnull align 8 dereferenceable(56) %0, ptr noundef nonnull align 8 dereferenceable(56) %1) #0 comdat align 2 {
  %3 = alloca ptr, align 8
  %4 = alloca ptr, align 8
  store ptr %0, ptr %3, align 8
  store ptr %1, ptr %4, align 8
  %5 = load ptr, ptr %3, align 8
  %6 = getelementptr inbounds nuw %"class.llvm::Triple", ptr %5, i32 0, i32 0
  %7 = load ptr, ptr %4, align 8
  %8 = getelementptr inbounds nuw %"class.llvm::Triple", ptr %7, i32 0, i32 0
  %9 = call noundef nonnull align 8 dereferenceable(32) ptr @_ZNSt7__cxx1112basic_stringIcSt11char_traitsIcESaIcEEaSEOS4_(ptr noundef nonnull align 8 dereferenceable(32) %6, ptr noundef nonnull align 8 dereferenceable(32) %8) #11
  %10 = getelementptr inbounds nuw %"class.llvm::Triple", ptr %5, i32 0, i32 1
  %11 = load ptr, ptr %4, align 8
  %12 = getelementptr inbounds nuw %"class.llvm::Triple", ptr %11, i32 0, i32 1
  call void @llvm.memcpy.p0.p0.i64(ptr align 8 %10, ptr align 8 %12, i64 24, i1 false)
  ret ptr %5
}

; Function Attrs: mustprogress nounwind uwtable
define internal void @_ZL12adjustTripleRKN5clang6driver6DriverERKN4llvm6TripleERKNS4_3opt7ArgListE(ptr dead_on_unwind noalias writable sret(%"class.llvm::Triple") align 8 %0, ptr noundef nonnull align 8 dereferenceable(1192) %1, ptr noundef nonnull align 8 dereferenceable(56) %2, ptr noundef nonnull align 8 dereferenceable(176) %3) #0 {
  %5 = alloca ptr, align 8
  %6 = alloca ptr, align 8
  %7 = alloca ptr, align 8
  %8 = alloca ptr, align 8
  %9 = alloca %"class.llvm::SmallVector.261", align 8
  %10 = alloca ptr, align 8
  %11 = alloca ptr, align 8
  %12 = alloca ptr, align 8
  %13 = alloca %"class.llvm::StringRef", align 8
  %14 = alloca i1, align 1
  %15 = alloca %"class.llvm::StringRef", align 8
  %16 = alloca i32, align 4
  store ptr %0, ptr %5, align 8
  store ptr %1, ptr %6, align 8
  store ptr %2, ptr %7, align 8
  store ptr %3, ptr %8, align 8
  %17 = load ptr, ptr %6, align 8
  %18 = load ptr, ptr %7, align 8
  %19 = load ptr, ptr %8, align 8
  %20 = call noundef zeroext i1 @_ZL10testTripleRKN5clang6driver6DriverERKN4llvm6TripleERKNS4_3opt7ArgListE(ptr noundef nonnull align 8 dereferenceable(1192) %17, ptr noundef nonnull align 8 dereferenceable(56) %18, ptr noundef nonnull align 8 dereferenceable(176) %19)
  br i1 %20, label %21, label %23

21:                                               ; preds = %4
  %22 = load ptr, ptr %7, align 8
  call void @_ZN4llvm6TripleC2ERKS0_(ptr noundef nonnull align 8 dereferenceable(56) %0, ptr noundef nonnull align 8 dereferenceable(56) %22)
  br label %75

23:                                               ; preds = %4
  call void @_ZN4llvm11SmallVectorINS_9StringRefELj3EEC2Ev(ptr noundef nonnull align 8 dereferenceable(64) %9)
  %24 = load ptr, ptr %7, align 8
  %25 = call noundef i32 @_ZNK4llvm6Triple7getArchEv(ptr noundef nonnull align 8 dereferenceable(56) %24)
  %26 = icmp eq i32 %25, 37
  br i1 %26, label %27, label %31

27:                                               ; preds = %23
  %28 = call noundef nonnull align 8 dereferenceable(16) ptr @_ZN4llvm15SmallVectorImplINS_9StringRefEE12emplace_backIJRA5_KcEEERS1_DpOT_(ptr noundef nonnull align 8 dereferenceable(16) %9, ptr noundef nonnull align 1 dereferenceable(5) @.str.110)
  %29 = call noundef nonnull align 8 dereferenceable(16) ptr @_ZN4llvm15SmallVectorImplINS_9StringRefEE12emplace_backIJRA5_KcEEERS1_DpOT_(ptr noundef nonnull align 8 dereferenceable(16) %9, ptr noundef nonnull align 1 dereferenceable(5) @.str.111)
  %30 = call noundef nonnull align 8 dereferenceable(16) ptr @_ZN4llvm15SmallVectorImplINS_9StringRefEE12emplace_backIJRA5_KcEEERS1_DpOT_(ptr noundef nonnull align 8 dereferenceable(16) %9, ptr noundef nonnull align 1 dereferenceable(5) @.str.112)
  br label %42

31:                                               ; preds = %23
  %32 = load ptr, ptr %7, align 8
  %33 = call noundef i32 @_ZNK4llvm6Triple7getArchEv(ptr noundef nonnull align 8 dereferenceable(56) %32)
  %34 = icmp eq i32 %33, 1
  br i1 %34, label %39, label %35

35:                                               ; preds = %31
  %36 = load ptr, ptr %7, align 8
  %37 = call noundef i32 @_ZNK4llvm6Triple7getArchEv(ptr noundef nonnull align 8 dereferenceable(56) %36)
  %38 = icmp eq i32 %37, 35
  br i1 %38, label %39, label %41

39:                                               ; preds = %35, %31
  %40 = call noundef nonnull align 8 dereferenceable(16) ptr @_ZN4llvm15SmallVectorImplINS_9StringRefEE12emplace_backIJRA6_KcEEERS1_DpOT_(ptr noundef nonnull align 8 dereferenceable(16) %9, ptr noundef nonnull align 1 dereferenceable(6) @.str.113)
  br label %41

41:                                               ; preds = %39, %35
  br label %42

42:                                               ; preds = %41, %27
  store ptr %9, ptr %10, align 8
  %43 = load ptr, ptr %10, align 8
  %44 = call noundef ptr @_ZN4llvm25SmallVectorTemplateCommonINS_9StringRefEvE5beginEv(ptr noundef nonnull align 8 dereferenceable(16) %43)
  store ptr %44, ptr %11, align 8
  %45 = load ptr, ptr %10, align 8
  %46 = call noundef ptr @_ZN4llvm25SmallVectorTemplateCommonINS_9StringRefEvE3endEv(ptr noundef nonnull align 8 dereferenceable(16) %45)
  store ptr %46, ptr %12, align 8
  br label %47

47:                                               ; preds = %69, %42
  %48 = load ptr, ptr %11, align 8
  %49 = load ptr, ptr %12, align 8
  %50 = icmp ne ptr %48, %49
  br i1 %50, label %51, label %72

51:                                               ; preds = %47
  %52 = load ptr, ptr %11, align 8
  call void @llvm.memcpy.p0.p0.i64(ptr align 8 %13, ptr align 8 %52, i64 16, i1 false)
  store i1 false, ptr %14, align 1
  %53 = load ptr, ptr %7, align 8
  call void @_ZN4llvm6TripleC2ERKS0_(ptr noundef nonnull align 8 dereferenceable(56) %0, ptr noundef nonnull align 8 dereferenceable(56) %53)
  call void @llvm.memcpy.p0.p0.i64(ptr align 8 %15, ptr align 8 %13, i64 16, i1 false)
  %54 = getelementptr inbounds nuw { ptr, i64 }, ptr %15, i32 0, i32 0
  %55 = load ptr, ptr %54, align 8
  %56 = getelementptr inbounds nuw { ptr, i64 }, ptr %15, i32 0, i32 1
  %57 = load i64, ptr %56, align 8
  call void @_ZN4llvm6Triple11setArchNameENS_9StringRefE(ptr noundef nonnull align 8 dereferenceable(56) %0, ptr %55, i64 %57)
  %58 = load ptr, ptr %6, align 8
  %59 = load ptr, ptr %8, align 8
  %60 = call noundef zeroext i1 @_ZL10testTripleRKN5clang6driver6DriverERKN4llvm6TripleERKNS4_3opt7ArgListE(ptr noundef nonnull align 8 dereferenceable(1192) %58, ptr noundef nonnull align 8 dereferenceable(56) %0, ptr noundef nonnull align 8 dereferenceable(176) %59)
  br i1 %60, label %61, label %62

61:                                               ; preds = %51
  store i1 true, ptr %14, align 1
  store i32 1, ptr %16, align 4
  br label %63

62:                                               ; preds = %51
  store i32 0, ptr %16, align 4
  br label %63

63:                                               ; preds = %62, %61
  %64 = load i1, ptr %14, align 1
  br i1 %64, label %66, label %65

65:                                               ; preds = %63
  call void @_ZN4llvm6TripleD2Ev(ptr noundef nonnull align 8 dereferenceable(56) %0) #11
  br label %66

66:                                               ; preds = %65, %63
  %67 = load i32, ptr %16, align 4
  switch i32 %67, label %74 [
    i32 0, label %68
  ]

68:                                               ; preds = %66
  br label %69

69:                                               ; preds = %68
  %70 = load ptr, ptr %11, align 8
  %71 = getelementptr inbounds %"class.llvm::StringRef", ptr %70, i32 1
  store ptr %71, ptr %11, align 8
  br label %47

72:                                               ; preds = %47
  %73 = load ptr, ptr %7, align 8
  call void @_ZN4llvm6TripleC2ERKS0_(ptr noundef nonnull align 8 dereferenceable(56) %0, ptr noundef nonnull align 8 dereferenceable(56) %73)
  store i32 1, ptr %16, align 4
  br label %74

74:                                               ; preds = %72, %66
  call void @_ZN4llvm11SmallVectorINS_9StringRefELj3EED2Ev(ptr noundef nonnull align 8 dereferenceable(64) %9) #11
  br label %75

75:                                               ; preds = %74, %21
  ret void
}

; Function Attrs: mustprogress nounwind uwtable
define linkonce_odr hidden noundef i32 @_ZNK4llvm6Triple7getArchEv(ptr noundef nonnull align 8 dereferenceable(56) %0) #0 comdat align 2 {
  %2 = alloca ptr, align 8
  store ptr %0, ptr %2, align 8
  %3 = load ptr, ptr %2, align 8
  %4 = getelementptr inbounds nuw %"class.llvm::Triple", ptr %3, i32 0, i32 1
  %5 = load i32, ptr %4, align 8
  ret i32 %5
}

; Function Attrs: mustprogress nounwind uwtable
define hidden void @_ZN5clang6driver10toolchains5MinGW13fixTripleArchERKNS0_6DriverERN4llvm6TripleERKNS6_3opt7ArgListE(ptr noundef nonnull align 8 dereferenceable(1192) %0, ptr noundef nonnull align 8 dereferenceable(56) %1, ptr noundef nonnull align 8 dereferenceable(176) %2) #0 align 2 {
  %4 = alloca ptr, align 8
  %5 = alloca ptr, align 8
  %6 = alloca ptr, align 8
  %7 = alloca %"class.llvm::Triple", align 8
  store ptr %0, ptr %4, align 8
  store ptr %1, ptr %5, align 8
  store ptr %2, ptr %6, align 8
  %8 = load ptr, ptr %5, align 8
  %9 = call noundef i32 @_ZNK4llvm6Triple7getArchEv(ptr noundef nonnull align 8 dereferenceable(56) %8)
  %10 = icmp eq i32 %9, 37
  br i1 %10, label %19, label %11

11:                                               ; preds = %3
  %12 = load ptr, ptr %5, align 8
  %13 = call noundef i32 @_ZNK4llvm6Triple7getArchEv(ptr noundef nonnull align 8 dereferenceable(56) %12)
  %14 = icmp eq i32 %13, 1
  br i1 %14, label %19, label %15

15:                                               ; preds = %11
  %16 = load ptr, ptr %5, align 8
  %17 = call noundef i32 @_ZNK4llvm6Triple7getArchEv(ptr noundef nonnull align 8 dereferenceable(56) %16)
  %18 = icmp eq i32 %17, 35
  br i1 %18, label %19, label %25

19:                                               ; preds = %15, %11, %3
  %20 = load ptr, ptr %4, align 8
  %21 = load ptr, ptr %5, align 8
  %22 = load ptr, ptr %6, align 8
  call void @_ZL12adjustTripleRKN5clang6driver6DriverERKN4llvm6TripleERKNS4_3opt7ArgListE(ptr dead_on_unwind writable sret(%"class.llvm::Triple") align 8 %7, ptr noundef nonnull align 8 dereferenceable(1192) %20, ptr noundef nonnull align 8 dereferenceable(56) %21, ptr noundef nonnull align 8 dereferenceable(176) %22)
  %23 = load ptr, ptr %5, align 8
  %24 = call noundef nonnull align 8 dereferenceable(56) ptr @_ZN4llvm6TripleaSEOS0_(ptr noundef nonnull align 8 dereferenceable(56) %23, ptr noundef nonnull align 8 dereferenceable(56) %7) #11
  call void @_ZN4llvm6TripleD2Ev(ptr noundef nonnull align 8 dereferenceable(56) %7) #11
  br label %25

25:                                               ; preds = %19, %15
  ret void
}