; Function Attrs: mustprogress nounwind uwtable
define hidden void @_ZN5clang6driver10toolchains5MinGW13fixTripleArchERKNS0_6DriverERN4llvm6TripleERKNS6_3opt7ArgListE(ptr noundef nonnull align 8 dereferenceable(1192) %0, ptr noundef nonnull align 8 dereferenceable(56) %1, ptr nocapture noundef nonnull readnone align 8 dereferenceable(176) %2) local_unnamed_addr #0 align 2 {
  %4 = alloca %"class.llvm::SmallVector.261", align 8
  %5 = alloca %"class.llvm::Triple", align 8
  %6 = getelementptr inbounds nuw i8, ptr %1, i64 32
  %7 = load i32, ptr %6, align 8
  switch i32 %7, label %37 [
    i32 37, label %8
    i32 1, label %8
    i32 35, label %8
  ]

8:                                                ; preds = %3, %3, %3
  call void @llvm.lifetime.start.p0(i64 64, ptr nonnull %4)
  %9 = tail call fastcc noundef zeroext i1 @_ZL10testTripleRKN5clang6driver6DriverERKN4llvm6TripleERKNS4_3opt7ArgListE(ptr noundef nonnull align 8 dereferenceable(1192) %0, ptr noundef nonnull align 8 dereferenceable(56) %1), !noalias !292
  br i1 %9, label %10, label %12

10:                                               ; preds = %8
  call void @_ZNSt7__cxx1112basic_stringIcSt11char_traitsIcESaIcEEC1ERKS4_(ptr noundef nonnull align 8 dereferenceable(32) %5, ptr noundef nonnull align 8 dereferenceable(32) %1) #15
  %11 = getelementptr inbounds nuw i8, ptr %5, i64 32
  call void @llvm.memcpy.p0.p0.i64(ptr noundef nonnull align 8 dereferenceable(24) %11, ptr noundef nonnull align 8 dereferenceable(24) %6, i64 24, i1 false)
  br label %_ZL12adjustTripleRKN5clang6driver6DriverERKN4llvm6TripleERKNS4_3opt7ArgListE.exit

12:                                               ; preds = %8
  %13 = getelementptr inbounds i8, ptr %4, i64 16
  call void @_ZN4llvm15SmallVectorBaseIjEC2EPvm(ptr noundef nonnull align 8 dereferenceable(16) %4, ptr noundef nonnull %13, i64 noundef 3) #15, !noalias !292
  %14 = load i32, ptr %6, align 8, !noalias !292
  switch i32 %14, label %21 [
    i32 37, label %15
    i32 1, label %19
    i32 35, label %19
  ]

15:                                               ; preds = %12
  %16 = call noundef nonnull align 8 dereferenceable(16) ptr @_ZN4llvm15SmallVectorImplINS_9StringRefEE12emplace_backIJRA5_KcEEERS1_DpOT_(ptr noundef nonnull align 8 dereferenceable(16) %4, ptr noundef nonnull align 1 dereferenceable(5) @.str.110), !noalias !292
  %17 = call noundef nonnull align 8 dereferenceable(16) ptr @_ZN4llvm15SmallVectorImplINS_9StringRefEE12emplace_backIJRA5_KcEEERS1_DpOT_(ptr noundef nonnull align 8 dereferenceable(16) %4, ptr noundef nonnull align 1 dereferenceable(5) @.str.111), !noalias !292
  %18 = call noundef nonnull align 8 dereferenceable(16) ptr @_ZN4llvm15SmallVectorImplINS_9StringRefEE12emplace_backIJRA5_KcEEERS1_DpOT_(ptr noundef nonnull align 8 dereferenceable(16) %4, ptr noundef nonnull align 1 dereferenceable(5) @.str.112), !noalias !292
  br label %21

19:                                               ; preds = %12, %12
  %20 = call noundef nonnull align 8 dereferenceable(16) ptr @_ZN4llvm15SmallVectorImplINS_9StringRefEE12emplace_backIJRA6_KcEEERS1_DpOT_(ptr noundef nonnull align 8 dereferenceable(16) %4, ptr noundef nonnull align 1 dereferenceable(6) @.str.113), !noalias !292
  br label %21

21:                                               ; preds = %19, %15, %12
  %22 = load ptr, ptr %4, align 8, !noalias !292
  %23 = call noundef i64 @_ZNK4llvm15SmallVectorBaseIjE4sizeEv(ptr noundef nonnull align 8 dereferenceable(16) %4) #15, !noalias !292
  %24 = getelementptr inbounds %"class.llvm::StringRef", ptr %22, i64 %23
  %.not1.i = icmp eq i64 %23, 0
  br i1 %.not1.i, label %._crit_edge.i, label %.lr.ph.i

.lr.ph.i:                                         ; preds = %21
  %25 = getelementptr inbounds nuw i8, ptr %5, i64 32
  br label %26

26:                                               ; preds = %28, %.lr.ph.i
  %.0202.i = phi ptr [ %22, %.lr.ph.i ], [ %29, %28 ]
  %.sroa.01.0.copyload.i = load ptr, ptr %.0202.i, align 8
  %.sroa.22.0..sroa_idx.i = getelementptr inbounds i8, ptr %.0202.i, i64 8
  %.sroa.22.0.copyload.i = load i64, ptr %.sroa.22.0..sroa_idx.i, align 8
  call void @_ZNSt7__cxx1112basic_stringIcSt11char_traitsIcESaIcEEC1ERKS4_(ptr noundef nonnull align 8 dereferenceable(32) %5, ptr noundef nonnull align 8 dereferenceable(32) %1) #15
  call void @llvm.memcpy.p0.p0.i64(ptr noundef nonnull align 8 dereferenceable(24) %25, ptr noundef nonnull align 8 dereferenceable(24) %6, i64 24, i1 false)
  call void @_ZN4llvm6Triple11setArchNameENS_9StringRefE(ptr noundef nonnull align 8 dereferenceable(56) %5, ptr %.sroa.01.0.copyload.i, i64 %.sroa.22.0.copyload.i) #15
  %27 = call fastcc noundef zeroext i1 @_ZL10testTripleRKN5clang6driver6DriverERKN4llvm6TripleERKNS4_3opt7ArgListE(ptr noundef nonnull align 8 dereferenceable(1192) %0, ptr noundef nonnull align 8 dereferenceable(56) %5)
  br i1 %27, label %.critedge.i, label %28

28:                                               ; preds = %26
  call void @_ZNSt7__cxx1112basic_stringIcSt11char_traitsIcESaIcEED1Ev(ptr noundef nonnull align 8 dereferenceable(32) %5) #15
  %29 = getelementptr inbounds i8, ptr %.0202.i, i64 16
  %.not.i = icmp eq ptr %29, %24
  br i1 %.not.i, label %._crit_edge.i, label %26

._crit_edge.i:                                    ; preds = %28, %21
  call void @_ZNSt7__cxx1112basic_stringIcSt11char_traitsIcESaIcEEC1ERKS4_(ptr noundef nonnull align 8 dereferenceable(32) %5, ptr noundef nonnull align 8 dereferenceable(32) %1) #15
  %30 = getelementptr inbounds nuw i8, ptr %5, i64 32
  call void @llvm.memcpy.p0.p0.i64(ptr noundef nonnull align 8 dereferenceable(24) %30, ptr noundef nonnull align 8 dereferenceable(24) %6, i64 24, i1 false)
  br label %.critedge.i

.critedge.i:                                      ; preds = %26, %._crit_edge.i
  %31 = call noundef i64 @_ZNK4llvm15SmallVectorBaseIjE4sizeEv(ptr noundef nonnull align 8 dereferenceable(16) %4) #15
  %32 = load ptr, ptr %4, align 8, !noalias !292
  %33 = icmp eq ptr %32, %13
  br i1 %33, label %_ZL12adjustTripleRKN5clang6driver6DriverERKN4llvm6TripleERKNS4_3opt7ArgListE.exit, label %34

34:                                               ; preds = %.critedge.i
  call void @free(ptr noundef %32) #15
  br label %_ZL12adjustTripleRKN5clang6driver6DriverERKN4llvm6TripleERKNS4_3opt7ArgListE.exit

_ZL12adjustTripleRKN5clang6driver6DriverERKN4llvm6TripleERKNS4_3opt7ArgListE.exit: ; preds = %10, %.critedge.i, %34
  call void @llvm.lifetime.end.p0(i64 64, ptr nonnull %4)
  %35 = call noundef nonnull align 8 dereferenceable(32) ptr @_ZNSt7__cxx1112basic_stringIcSt11char_traitsIcESaIcEEaSEOS4_(ptr noundef nonnull align 8 dereferenceable(32) %1, ptr noundef nonnull align 8 dereferenceable(32) %5) #15
  %36 = getelementptr inbounds nuw i8, ptr %5, i64 32
  call void @llvm.memcpy.p0.p0.i64(ptr noundef nonnull align 8 dereferenceable(24) %6, ptr noundef nonnull align 8 dereferenceable(24) %36, i64 24, i1 false)
  call void @_ZNSt7__cxx1112basic_stringIcSt11char_traitsIcESaIcEED1Ev(ptr noundef nonnull align 8 dereferenceable(32) %5) #15
  br label %37

37:                                               ; preds = %3, %_ZL12adjustTripleRKN5clang6driver6DriverERKN4llvm6TripleERKNS4_3opt7ArgListE.exit
  ret void
}